target datalayout = "e-m:e-p270:32:32-p271:32:32-p272:64:64-i64:64-i128:128-f80:128-n8:16:32:64-S128"
target triple = "x86_64-pc-linux-gnu"

%struct.Vec_Int_t_ = type { i32, i32, ptr }

; Function Attrs: inlinehint nounwind uwtable
define internal void @Vec_IntWriteEntry(ptr noundef %0, i32 noundef %1, i32 noundef %2) #2 {
  %4 = alloca ptr, align 8
  %5 = alloca i32, align 4
  %6 = alloca i32, align 4
  store ptr %0, ptr %4, align 8, !tbaa !8
  store i32 %1, ptr %5, align 4, !tbaa !12
  store i32 %2, ptr %6, align 4, !tbaa !12
  %7 = load i32, ptr %6, align 4, !tbaa !12
  %8 = load ptr, ptr %4, align 8, !tbaa !8
  %9 = getelementptr inbounds nuw %struct.Vec_Int_t_, ptr %8, i32 0, i32 2
  %10 = load ptr, ptr %9, align 8, !tbaa !17
  %11 = load i32, ptr %5, align 4, !tbaa !12
  %12 = sext i32 %11 to i64
  %13 = getelementptr inbounds i32, ptr %10, i64 %12
  store i32 %7, ptr %13, align 4, !tbaa !12
  ret void
}

; Function Attrs: inlinehint nounwind uwtable
define internal i32 @Vec_IntEntry(ptr noundef %0, i32 noundef %1) #2 {
  %3 = alloca ptr, align 8
  %4 = alloca i32, align 4
  store ptr %0, ptr %3, align 8, !tbaa !8
  store i32 %1, ptr %4, align 4, !tbaa !12
  %5 = load ptr, ptr %3, align 8, !tbaa !8
  %6 = getelementptr inbounds nuw %struct.Vec_Int_t_, ptr %5, i32 0, i32 2
  %7 = load ptr, ptr %6, align 8, !tbaa !17
  %8 = load i32, ptr %4, align 4, !tbaa !12
  %9 = sext i32 %8 to i64
  %10 = getelementptr inbounds i32, ptr %7, i64 %9
  %11 = load i32, ptr %10, align 4, !tbaa !12
  ret i32 %11
}

; Function Attrs: nounwind uwtable
define void @Gia_MiniAigGenerate_rec(ptr noundef %0, ptr noundef %1, i32 noundef %2, ptr noundef %3, ptr noundef %4) #0 {
  %6 = alloca ptr, align 8
  %7 = alloca ptr, align 8
  %8 = alloca i32, align 4
  %9 = alloca ptr, align 8
  %10 = alloca ptr, align 8
  %11 = alloca i32, align 4
  %12 = alloca i32, align 4
  %13 = alloca i32, align 4
  %14 = alloca i32, align 4
  %15 = alloca i32, align 4
  %16 = alloca i32, align 4
  store ptr %0, ptr %6, align 8, !tbaa !10
  store ptr %1, ptr %7, align 8, !tbaa !8
  store i32 %2, ptr %8, align 4, !tbaa !12
  store ptr %3, ptr %9, align 8, !tbaa !8
  store ptr %4, ptr %10, align 8, !tbaa !8
  call void @llvm.lifetime.start.p0(i64 4, ptr %11) #13
  call void @llvm.lifetime.start.p0(i64 4, ptr %12) #13
  call void @llvm.lifetime.start.p0(i64 4, ptr %13) #13
  call void @llvm.lifetime.start.p0(i64 4, ptr %14) #13
  call void @llvm.lifetime.start.p0(i64 4, ptr %15) #13
  %17 = load ptr, ptr %10, align 8, !tbaa !8
  %18 = load i32, ptr %8, align 4, !tbaa !12
  %19 = call i32 @Vec_IntEntry(ptr noundef %17, i32 noundef %18)
  %20 = icmp sge i32 %19, 0
  br i1 %20, label %21, label %22

21:                                               ; preds = %5
  store i32 1, ptr %16, align 4
  br label %62

22:                                               ; preds = %5
  %23 = load ptr, ptr %9, align 8, !tbaa !8
  %24 = load i32, ptr %8, align 4, !tbaa !12
  %25 = call i32 @Vec_IntEntry(ptr noundef %23, i32 noundef %24)
  store i32 %25, ptr %11, align 4, !tbaa !12
  %26 = load ptr, ptr %7, align 8, !tbaa !8
  %27 = load i32, ptr %11, align 4, !tbaa !12
  %28 = mul nsw i32 3, %27
  %29 = add nsw i32 %28, 0
  %30 = call i32 @Vec_IntEntry(ptr noundef %26, i32 noundef %29)
  store i32 %30, ptr %12, align 4, !tbaa !12
  %31 = load ptr, ptr %7, align 8, !tbaa !8
  %32 = load i32, ptr %11, align 4, !tbaa !12
  %33 = mul nsw i32 3, %32
  %34 = add nsw i32 %33, 1
  %35 = call i32 @Vec_IntEntry(ptr noundef %31, i32 noundef %34)
  store i32 %35, ptr %13, align 4, !tbaa !12
  %36 = load ptr, ptr %7, align 8, !tbaa !8
  %37 = load i32, ptr %11, align 4, !tbaa !12
  %38 = mul nsw i32 3, %37
  %39 = add nsw i32 %38, 2
  %40 = call i32 @Vec_IntEntry(ptr noundef %36, i32 noundef %39)
  store i32 %40, ptr %14, align 4, !tbaa !12
  %41 = load ptr, ptr %6, align 8, !tbaa !10
  %42 = load ptr, ptr %7, align 8, !tbaa !8
  %43 = load i32, ptr %13, align 4, !tbaa !12
  %44 = load ptr, ptr %9, align 8, !tbaa !8
  %45 = load ptr, ptr %10, align 8, !tbaa !8
  call void @Gia_MiniAigGenerate_rec(ptr noundef %41, ptr noundef %42, i32 noundef %43, ptr noundef %44, ptr noundef %45)
  %46 = load ptr, ptr %6, align 8, !tbaa !10
  %47 = load ptr, ptr %7, align 8, !tbaa !8
  %48 = load i32, ptr %14, align 4, !tbaa !12
  %49 = load ptr, ptr %9, align 8, !tbaa !8
  %50 = load ptr, ptr %10, align 8, !tbaa !8
  call void @Gia_MiniAigGenerate_rec(ptr noundef %46, ptr noundef %47, i32 noundef %48, ptr noundef %49, ptr noundef %50)
  %51 = load ptr, ptr %6, align 8, !tbaa !10
  %52 = load ptr, ptr %10, align 8, !tbaa !8
  %53 = load i32, ptr %13, align 4, !tbaa !12
  %54 = call i32 @Vec_IntEntry(ptr noundef %52, i32 noundef %53)
  %55 = load ptr, ptr %10, align 8, !tbaa !8
  %56 = load i32, ptr %14, align 4, !tbaa !12
  %57 = call i32 @Vec_IntEntry(ptr noundef %55, i32 noundef %56)
  %58 = call i32 @Mini_AigAnd(ptr noundef %51, i32 noundef %54, i32 noundef %57)
  store i32 %58, ptr %15, align 4, !tbaa !12
  %59 = load ptr, ptr %10, align 8, !tbaa !8
  %60 = load i32, ptr %12, align 4, !tbaa !12
  %61 = load i32, ptr %15, align 4, !tbaa !12
  call void @Vec_IntWriteEntry(ptr noundef %59, i32 noundef %60, i32 noundef %61)
  store i32 0, ptr %16, align 4
  br label %62

62:                                               ; preds = %22, %21
  call void @llvm.lifetime.end.p0(i64 4, ptr %15) #13
  call void @llvm.lifetime.end.p0(i64 4, ptr %14) #13
  call void @llvm.lifetime.end.p0(i64 4, ptr %13) #13
  call void @llvm.lifetime.end.p0(i64 4, ptr %12) #13
  call void @llvm.lifetime.end.p0(i64 4, ptr %11) #13
  %63 = load i32, ptr %16, align 4
  switch i32 %63, label %65 [
    i32 0, label %64
    i32 1, label %64
  ]

64:                                               ; preds = %62, %62
  ret void

65:                                               ; preds = %62
  unreachable
}