; Function Attrs: nounwind uwtable
define void @Gia_MiniAigGenerate_rec(ptr noundef %0, ptr noundef %1, i32 noundef %2, ptr noundef %3, ptr noundef %4) local_unnamed_addr #2 {
  %6 = getelementptr i8, ptr %4, i64 8
  %.val32 = load ptr, ptr %6, align 8, !tbaa !11
  %7 = sext i32 %2 to i64
  %8 = getelementptr inbounds i32, ptr %.val32, i64 %7
  %9 = load i32, ptr %8, align 4, !tbaa !10
  %10 = icmp sgt i32 %9, -1
  br i1 %10, label %common.ret34, label %11

common.ret34:                                     ; preds = %5, %11
  ret void

11:                                               ; preds = %5
  %12 = getelementptr i8, ptr %3, i64 8
  %.val31 = load ptr, ptr %12, align 8, !tbaa !11
  %13 = getelementptr inbounds i32, ptr %.val31, i64 %7
  %14 = load i32, ptr %13, align 4, !tbaa !10
  %15 = mul nsw i32 %14, 3
  %16 = getelementptr i8, ptr %1, i64 8
  %.val30 = load ptr, ptr %16, align 8, !tbaa !11
  %17 = sext i32 %15 to i64
  %18 = getelementptr i32, ptr %.val30, i64 %17
  %19 = load i32, ptr %18, align 4, !tbaa !10
  %20 = getelementptr i8, ptr %18, i64 4
  %21 = load i32, ptr %20, align 4, !tbaa !10
  %22 = getelementptr i8, ptr %18, i64 8
  %23 = load i32, ptr %22, align 4, !tbaa !10
  tail call void @Gia_MiniAigGenerate_rec(ptr noundef %0, ptr noundef %1, i32 noundef %21, ptr noundef %3, ptr noundef nonnull %4)
  tail call void @Gia_MiniAigGenerate_rec(ptr noundef %0, ptr noundef %1, i32 noundef %23, ptr noundef %3, ptr noundef nonnull %4)
  %.val27 = load ptr, ptr %6, align 8, !tbaa !11
  %24 = sext i32 %21 to i64
  %25 = getelementptr inbounds i32, ptr %.val27, i64 %24
  %26 = load i32, ptr %25, align 4, !tbaa !10
  %27 = sext i32 %23 to i64
  %28 = getelementptr inbounds i32, ptr %.val27, i64 %27
  %29 = load i32, ptr %28, align 4, !tbaa !10
  %30 = tail call fastcc i32 @Mini_AigAnd(ptr noundef %0, i32 noundef %26, i32 noundef %29)
  %.val33 = load ptr, ptr %6, align 8, !tbaa !11
  %31 = sext i32 %19 to i64
  %32 = getelementptr inbounds i32, ptr %.val33, i64 %31
  store i32 %30, ptr %32, align 4, !tbaa !10
  br label %common.ret34
}